; Function Attrs: mustprogress nofree norecurse nosync nounwind sspstrong willreturn memory(argmem: read) uwtable
define dso_local zeroext i1 @isa_ext_is_enabled(ptr noundef readonly captures(none) %cpu, i32 noundef %ext_offset) local_unnamed_addr #0 {
entry:
  %cfg = getelementptr inbounds nuw i8, ptr %cpu, i64 15312
  %idx.ext = zext i32 %ext_offset to i64
  %add.ptr = getelementptr i8, ptr %cfg, i64 %idx.ext
  %0 = load i8, ptr %add.ptr, align 1
  %tobool = trunc i8 %0 to i1
  ret i1 %tobool
}